target datalayout = "e-m:e-p270:32:32-p271:32:32-p272:64:64-i64:64-i128:128-f80:128-n8:16:32:64-S128"
target triple = "x86_64-pc-linux-gnu"

@_ZTISt9exception = external constant ptr
@_ZN12_GLOBAL__N_112errorMessageE = internal global [1024 x i8] zeroinitializer, align 16

; Function Attrs: noinline noreturn nounwind uwtable
define linkonce_odr hidden void @__clang_call_terminate(ptr noundef %0) #11 comdat {
  %2 = call ptr @__cxa_begin_catch(ptr %0) #3
  call void @_ZSt9terminatev() #18
  unreachable
}

; Function Attrs: mustprogress nounwind uwtable
define internal void @_ZN12_GLOBAL__N_115setErrorMessageERKSt9exception(ptr noundef nonnull align 8 dereferenceable(8) %0) #4 {
  %2 = alloca ptr, align 8
  store ptr %0, ptr %2, align 8, !tbaa !23
  %3 = load ptr, ptr %2, align 8, !tbaa !23
  %4 = load ptr, ptr %3, align 8, !tbaa !30
  %5 = getelementptr inbounds ptr, ptr %4, i64 2
  %6 = load ptr, ptr %5, align 8
  %7 = call noundef ptr %6(ptr noundef nonnull align 8 dereferenceable(8) %3) #3
  %8 = call ptr @strncpy(ptr noundef @_ZN12_GLOBAL__N_112errorMessageE, ptr noundef %7, i64 noundef 1023) #3
  store i8 0, ptr getelementptr inbounds ([1024 x i8], ptr @_ZN12_GLOBAL__N_112errorMessageE, i64 0, i64 1023), align 1, !tbaa !32
  ret void
}

; Function Attrs: mustprogress uwtable
define ptr @ImfOpenTiledInputFile(ptr noundef %0) #7 personality ptr @__gxx_personality_v0 {
  %2 = alloca ptr, align 8
  %3 = alloca ptr, align 8
  %4 = alloca ptr, align 8
  %5 = alloca i32, align 4
  %6 = alloca ptr, align 8
  store ptr %0, ptr %3, align 8, !tbaa !53
  %7 = invoke noalias noundef nonnull ptr @_Znwm(i64 noundef 56) #19
          to label %8 unwind label %13

8:                                                ; preds = %1
  %9 = load ptr, ptr %3, align 8, !tbaa !53
  %10 = invoke noundef i32 @_ZN7Imf_3_417globalThreadCountEv()
          to label %11 unwind label %17

11:                                               ; preds = %8
  invoke void @_ZN7Imf_3_418TiledRgbaInputFileC1EPKci(ptr noundef nonnull align 8 dereferenceable(56) %7, ptr noundef %9, i32 noundef %10)
          to label %12 unwind label %17

12:                                               ; preds = %11
  store ptr %7, ptr %2, align 8
  br label %36

13:                                               ; preds = %1
  %14 = landingpad { ptr, i32 }
          catch ptr @_ZTISt9exception
  %15 = extractvalue { ptr, i32 } %14, 0
  store ptr %15, ptr %4, align 8
  %16 = extractvalue { ptr, i32 } %14, 1
  store i32 %16, ptr %5, align 4
  br label %21

17:                                               ; preds = %11, %8
  %18 = landingpad { ptr, i32 }
          cleanup
          catch ptr @_ZTISt9exception
  %19 = extractvalue { ptr, i32 } %18, 0
  store ptr %19, ptr %4, align 8
  %20 = extractvalue { ptr, i32 } %18, 1
  store i32 %20, ptr %5, align 4
  call void @_ZdlPvm(ptr noundef %7, i64 noundef 56) #20
  br label %21

21:                                               ; preds = %17, %13
  %22 = load i32, ptr %5, align 4
  %23 = call i32 @llvm.eh.typeid.for.p0(ptr @_ZTISt9exception) #3
  %24 = icmp eq i32 %22, %23
  br i1 %24, label %25, label %38

25:                                               ; preds = %21
  call void @llvm.lifetime.start.p0(i64 8, ptr %6) #3
  %26 = load ptr, ptr %4, align 8
  %27 = call ptr @__cxa_begin_catch(ptr %26) #3
  store ptr %27, ptr %6, align 8
  %28 = load ptr, ptr %6, align 8, !tbaa !23
  invoke void @_ZN12_GLOBAL__N_115setErrorMessageERKSt9exception(ptr noundef nonnull align 8 dereferenceable(8) %28)
          to label %29 unwind label %30

29:                                               ; preds = %25
  store ptr null, ptr %2, align 8
  call void @__cxa_end_catch()
  call void @llvm.lifetime.end.p0(i64 8, ptr %6) #3
  br label %36

30:                                               ; preds = %25
  %31 = landingpad { ptr, i32 }
          cleanup
  %32 = extractvalue { ptr, i32 } %31, 0
  store ptr %32, ptr %4, align 8
  %33 = extractvalue { ptr, i32 } %31, 1
  store i32 %33, ptr %5, align 4
  invoke void @__cxa_end_catch()
          to label %34 unwind label %43

34:                                               ; preds = %30
  call void @llvm.lifetime.end.p0(i64 8, ptr %6) #3
  br label %38

35:                                               ; No predecessors!
  unreachable

36:                                               ; preds = %29, %12
  %37 = load ptr, ptr %2, align 8
  ret ptr %37

38:                                               ; preds = %34, %21
  %39 = load ptr, ptr %4, align 8
  %40 = load i32, ptr %5, align 4
  %41 = insertvalue { ptr, i32 } poison, ptr %39, 0
  %42 = insertvalue { ptr, i32 } %41, i32 %40, 1
  resume { ptr, i32 } %42

43:                                               ; preds = %30
  %44 = landingpad { ptr, i32 }
          catch ptr null
  %45 = extractvalue { ptr, i32 } %44, 0
  call void @__clang_call_terminate(ptr %45) #18
  unreachable
}